target datalayout = "e-m:e-p270:32:32-p271:32:32-p272:64:64-i64:64-i128:128-f80:128-n8:16:32:64-S128"
target triple = "x86_64-pc-linux-gnu"

%"class.std::basic_string_view" = type { i64, ptr }
%class.cmValue = type { ptr }

@.str.78 = private unnamed_addr constant [2 x i8] c"0\00", align 1
@.str.79 = private unnamed_addr constant [2 x i8] c"1\00", align 1

; Function Attrs: mustprogress nounwind uwtable
define linkonce_odr dso_local noundef zeroext i1 @_ZNK7cmValue5IsOffEv(ptr noundef nonnull align 8 dereferenceable(8) %0) #5 comdat align 2 {
  %2 = alloca ptr, align 8
  %3 = alloca %"class.std::basic_string_view", align 8
  store ptr %0, ptr %2, align 8
  %4 = load ptr, ptr %2, align 8
  %5 = getelementptr inbounds %class.cmValue, ptr %4, i32 0, i32 0
  %6 = load ptr, ptr %5, align 8
  %7 = icmp eq ptr %6, null
  br i1 %7, label %21, label %8

8:                                                ; preds = %1
  %9 = getelementptr inbounds %class.cmValue, ptr %4, i32 0, i32 0
  %10 = load ptr, ptr %9, align 8
  %11 = call { i64, ptr } @_ZNKSt7__cxx1112basic_stringIcSt11char_traitsIcESaIcEEcvSt17basic_string_viewIcS2_EEv(ptr noundef nonnull align 8 dereferenceable(32) %10) #3
  %12 = getelementptr inbounds { i64, ptr }, ptr %3, i32 0, i32 0
  %13 = extractvalue { i64, ptr } %11, 0
  store i64 %13, ptr %12, align 8
  %14 = getelementptr inbounds { i64, ptr }, ptr %3, i32 0, i32 1
  %15 = extractvalue { i64, ptr } %11, 1
  store ptr %15, ptr %14, align 8
  %16 = getelementptr inbounds { i64, ptr }, ptr %3, i32 0, i32 0
  %17 = load i64, ptr %16, align 8
  %18 = getelementptr inbounds { i64, ptr }, ptr %3, i32 0, i32 1
  %19 = load ptr, ptr %18, align 8
  %20 = call noundef zeroext i1 @_ZN7cmValue5IsOffESt17basic_string_viewIcSt11char_traitsIcEE(i64 %17, ptr %19) #3
  br label %21

21:                                               ; preds = %8, %1
  %22 = phi i1 [ true, %1 ], [ %20, %8 ]
  ret i1 %22
}

; Function Attrs: mustprogress nounwind uwtable
define linkonce_odr dso_local void @_ZN7cmValueC2ERKNSt7__cxx1112basic_stringIcSt11char_traitsIcESaIcEEE(ptr noundef nonnull align 8 dereferenceable(8) %0, ptr noundef nonnull align 8 dereferenceable(32) %1) unnamed_addr #5 comdat align 2 {
  %3 = alloca ptr, align 8
  %4 = alloca ptr, align 8
  store ptr %0, ptr %3, align 8
  store ptr %1, ptr %4, align 8
  %5 = load ptr, ptr %3, align 8
  %6 = getelementptr inbounds %class.cmValue, ptr %5, i32 0, i32 0
  %7 = load ptr, ptr %4, align 8
  store ptr %7, ptr %6, align 8
  ret void
}

; Function Attrs: mustprogress nounwind uwtable
define linkonce_odr dso_local noundef zeroext i1 @_ZNK7cmValuecvbEv(ptr noundef nonnull align 8 dereferenceable(8) %0) #5 comdat align 2 {
  %2 = alloca ptr, align 8
  store ptr %0, ptr %2, align 8
  %3 = load ptr, ptr %2, align 8
  %4 = getelementptr inbounds %class.cmValue, ptr %3, i32 0, i32 0
  %5 = load ptr, ptr %4, align 8
  %6 = icmp ne ptr %5, null
  ret i1 %6
}

; Function Attrs: mustprogress nounwind uwtable
define linkonce_odr dso_local noundef zeroext i1 @_Z7cmIsOff7cmValue(ptr %0) #5 comdat {
  %2 = alloca %class.cmValue, align 8
  %3 = getelementptr inbounds %class.cmValue, ptr %2, i32 0, i32 0
  store ptr %0, ptr %3, align 8
  %4 = call noundef zeroext i1 @_ZNK7cmValue5IsOffEv(ptr noundef nonnull align 8 dereferenceable(8) %2) #3
  ret i1 %4
}

; Function Attrs: mustprogress uwtable
define dso_local noundef zeroext i1 @_ZNK20cmConditionEvaluator18GetBooleanValueOldERK25cmExpandedCommandArgumentb(ptr noundef nonnull align 8 dereferenceable(44) %0, ptr noundef nonnull align 8 dereferenceable(33) %1, i1 noundef zeroext %2) #4 align 2 {
  %4 = alloca i1, align 1
  %5 = alloca ptr, align 8
  %6 = alloca ptr, align 8
  %7 = alloca i8, align 1
  %8 = alloca %class.cmValue, align 8
  %9 = alloca %class.cmValue, align 8
  %10 = alloca %class.cmValue, align 8
  %11 = alloca %class.cmValue, align 8
  %12 = alloca %class.cmValue, align 8
  store ptr %0, ptr %5, align 8
  store ptr %1, ptr %6, align 8
  %13 = zext i1 %2 to i8
  store i8 %13, ptr %7, align 1
  %14 = load ptr, ptr %5, align 8
  %15 = load i8, ptr %7, align 1
  %16 = trunc i8 %15 to i1
  br i1 %16, label %17, label %33

17:                                               ; preds = %3
  %18 = load ptr, ptr %6, align 8
  %19 = call noundef zeroext i1 @_ZNK25cmExpandedCommandArgumenteqEPKc(ptr noundef nonnull align 8 dereferenceable(33) %18, ptr noundef @.str.78)
  br i1 %19, label %20, label %21

20:                                               ; preds = %17
  store i1 false, ptr %4, align 1
  br label %52

21:                                               ; preds = %17
  %22 = load ptr, ptr %6, align 8
  %23 = call noundef zeroext i1 @_ZNK25cmExpandedCommandArgumenteqEPKc(ptr noundef nonnull align 8 dereferenceable(33) %22, ptr noundef @.str.79)
  br i1 %23, label %24, label %25

24:                                               ; preds = %21
  store i1 true, ptr %4, align 1
  br label %52

25:                                               ; preds = %21
  %26 = load ptr, ptr %6, align 8
  %27 = call ptr @_ZNK20cmConditionEvaluator23GetDefinitionIfUnquotedERK25cmExpandedCommandArgument(ptr noundef nonnull align 8 dereferenceable(44) %14, ptr noundef nonnull align 8 dereferenceable(33) %26)
  %28 = getelementptr inbounds %class.cmValue, ptr %8, i32 0, i32 0
  store ptr %27, ptr %28, align 8
  call void @llvm.memcpy.p0.p0.i64(ptr align 8 %9, ptr align 8 %8, i64 8, i1 false)
  %29 = getelementptr inbounds %class.cmValue, ptr %9, i32 0, i32 0
  %30 = load ptr, ptr %29, align 8
  %31 = call noundef zeroext i1 @_Z7cmIsOff7cmValue(ptr %30)
  %32 = xor i1 %31, true
  store i1 %32, ptr %4, align 1
  br label %52

33:                                               ; preds = %3
  %34 = load ptr, ptr %6, align 8
  %35 = call ptr @_ZNK20cmConditionEvaluator23GetDefinitionIfUnquotedERK25cmExpandedCommandArgument(ptr noundef nonnull align 8 dereferenceable(44) %14, ptr noundef nonnull align 8 dereferenceable(33) %34)
  %36 = getelementptr inbounds %class.cmValue, ptr %10, i32 0, i32 0
  store ptr %35, ptr %36, align 8
  %37 = call noundef zeroext i1 @_ZNK7cmValuecvbEv(ptr noundef nonnull align 8 dereferenceable(8) %10) #3
  br i1 %37, label %47, label %38

38:                                               ; preds = %33
  %39 = load ptr, ptr %6, align 8
  %40 = call noundef nonnull align 8 dereferenceable(32) ptr @_ZNK25cmExpandedCommandArgument8GetValueB5cxx11Ev(ptr noundef nonnull align 8 dereferenceable(33) %39)
  %41 = call noundef ptr @_ZNKSt7__cxx1112basic_stringIcSt11char_traitsIcESaIcEE5c_strEv(ptr noundef nonnull align 8 dereferenceable(32) %40) #3
  %42 = call i32 @atoi(ptr noundef %41) #16
  %43 = icmp ne i32 %42, 0
  br i1 %43, label %44, label %47

44:                                               ; preds = %38
  %45 = load ptr, ptr %6, align 8
  %46 = call noundef nonnull align 8 dereferenceable(32) ptr @_ZNK25cmExpandedCommandArgument8GetValueB5cxx11Ev(ptr noundef nonnull align 8 dereferenceable(33) %45)
  call void @_ZN7cmValueC2ERKNSt7__cxx1112basic_stringIcSt11char_traitsIcESaIcEEE(ptr noundef nonnull align 8 dereferenceable(8) %11, ptr noundef nonnull align 8 dereferenceable(32) %46) #3
  call void @llvm.memcpy.p0.p0.i64(ptr align 8 %10, ptr align 8 %11, i64 8, i1 false)
  br label %47

47:                                               ; preds = %44, %38, %33
  call void @llvm.memcpy.p0.p0.i64(ptr align 8 %12, ptr align 8 %10, i64 8, i1 false)
  %48 = getelementptr inbounds %class.cmValue, ptr %12, i32 0, i32 0
  %49 = load ptr, ptr %48, align 8
  %50 = call noundef zeroext i1 @_Z7cmIsOff7cmValue(ptr %49)
  %51 = xor i1 %50, true
  store i1 %51, ptr %4, align 1
  br label %52

52:                                               ; preds = %47, %25, %24, %20
  %53 = load i1, ptr %4, align 1
  ret i1 %53
}