; Function Attrs: mustprogress uwtable
define dso_local noundef zeroext i1 @_ZNK20cmConditionEvaluator18GetBooleanValueOldERK25cmExpandedCommandArgumentb(ptr noundef nonnull align 8 dereferenceable(44) %0, ptr noundef nonnull align 8 dereferenceable(33) %1, i1 noundef zeroext %2) local_unnamed_addr #3 align 2 {
  br i1 %2, label %4, label %11

4:                                                ; preds = %3
  %5 = tail call noundef zeroext i1 @_ZNK25cmExpandedCommandArgumenteqEPKc(ptr noundef nonnull align 8 dereferenceable(33) %1, ptr noundef nonnull @.str.78)
  br i1 %5, label %_Z7cmIsOff7cmValue.exit, label %6

6:                                                ; preds = %4
  %7 = tail call noundef zeroext i1 @_ZNK25cmExpandedCommandArgumenteqEPKc(ptr noundef nonnull align 8 dereferenceable(33) %1, ptr noundef nonnull @.str.79)
  br i1 %7, label %_Z7cmIsOff7cmValue.exit, label %8

8:                                                ; preds = %6
  %9 = tail call ptr @_ZNK20cmConditionEvaluator23GetDefinitionIfUnquotedERK25cmExpandedCommandArgument(ptr noundef nonnull align 8 dereferenceable(44) %0, ptr noundef nonnull align 8 dereferenceable(33) %1)
  %10 = icmp eq ptr %9, null
  br i1 %10, label %_Z7cmIsOff7cmValue.exit, label %_Z7cmIsOff7cmValue.exit.sink.split

11:                                               ; preds = %3
  %12 = tail call ptr @_ZNK20cmConditionEvaluator23GetDefinitionIfUnquotedERK25cmExpandedCommandArgument(ptr noundef nonnull align 8 dereferenceable(44) %0, ptr noundef nonnull align 8 dereferenceable(33) %1)
  %.not14 = icmp eq ptr %12, null
  br i1 %.not14, label %13, label %_Z7cmIsOff7cmValue.exit.sink.split

13:                                               ; preds = %11
  %14 = tail call noundef nonnull align 8 dereferenceable(32) ptr @_ZNK25cmExpandedCommandArgument8GetValueB5cxx11Ev(ptr noundef nonnull align 8 dereferenceable(33) %1)
  %15 = tail call noundef ptr @_ZNKSt7__cxx1112basic_stringIcSt11char_traitsIcESaIcEE5c_strEv(ptr noundef nonnull align 8 dereferenceable(32) %14) #19
  %16 = tail call i32 @atoi(ptr noundef %15) #23
  %.not = icmp eq i32 %16, 0
  br i1 %.not, label %_Z7cmIsOff7cmValue.exit, label %17

17:                                               ; preds = %13
  %18 = tail call noundef nonnull align 8 dereferenceable(32) ptr @_ZNK25cmExpandedCommandArgument8GetValueB5cxx11Ev(ptr noundef nonnull align 8 dereferenceable(33) %1)
  br label %_Z7cmIsOff7cmValue.exit.sink.split

_Z7cmIsOff7cmValue.exit.sink.split:               ; preds = %17, %11, %8
  %.sroa.011.0.ph.sink = phi ptr [ %9, %8 ], [ %18, %17 ], [ %12, %11 ]
  %19 = tail call { i64, ptr } @_ZNKSt7__cxx1112basic_stringIcSt11char_traitsIcESaIcEEcvSt17basic_string_viewIcS2_EEv(ptr noundef nonnull align 8 dereferenceable(32) %.sroa.011.0.ph.sink) #19
  %20 = extractvalue { i64, ptr } %19, 0
  %21 = extractvalue { i64, ptr } %19, 1
  %22 = tail call noundef zeroext i1 @_ZN7cmValue5IsOffESt17basic_string_viewIcSt11char_traitsIcEE(i64 %20, ptr %21) #19
  %23 = xor i1 %22, true
  br label %_Z7cmIsOff7cmValue.exit

_Z7cmIsOff7cmValue.exit:                          ; preds = %_Z7cmIsOff7cmValue.exit.sink.split, %13, %8, %6, %4
  %.0 = phi i1 [ false, %4 ], [ true, %6 ], [ false, %8 ], [ false, %13 ], [ %23, %_Z7cmIsOff7cmValue.exit.sink.split ]
  ret i1 %.0
}